; Function Attrs: nounwind uwtable
define dso_local i32 @KangarooTwelve_Squeeze(ptr noundef %0, ptr noundef %1, i64 noundef %2) local_unnamed_addr #0 {
  %4 = getelementptr inbounds nuw i8, ptr %0, i64 452
  %5 = load i32, ptr %4, align 4
  %.not = icmp eq i32 %5, 3
  br i1 %.not, label %6, label %9

6:                                                ; preds = %3
  %7 = getelementptr inbounds nuw i8, ptr %0, i64 216
  %8 = tail call i32 @KeccakWidth1600_12rounds_SpongeSqueeze(ptr noundef nonnull %7, ptr noundef %1, i64 noundef %2) #4
  br label %9

9:                                                ; preds = %3, %6
  %.0 = phi i32 [ %8, %6 ], [ 1, %3 ]
  ret i32 %.0
}